; ModuleID = '62/3609.c'
source_filename = "62/3609.c"
target datalayout = "e-m:e-p270:32:32-p271:32:32-p272:64:64-i64:64-f80:128-n8:16:32:64-S128"
target triple = "x86_64-pc-linux-gnu"

; Function Attrs: noinline nounwind uwtable
define dso_local i32 @main() #0 {
  %1 = alloca i32, align 4
  %2 = alloca [200 x i8], align 16
  %3 = alloca i32, align 4
  %4 = alloca i32, align 4
  %5 = alloca i32, align 4
  store i32 0, i32* %1, align 4
  %6 = getelementptr inbounds [200 x i8], [200 x i8]* %2, i64 0, i64 0
  %7 = call i32 (i8*, ...) bitcast (i32 (...)* @gets to i32 (i8*, ...)*)(i8* %6)
  %8 = getelementptr inbounds [200 x i8], [200 x i8]* %2, i64 0, i64 0
  %9 = call i64 @strlen(i8* %8) #3
  %10 = trunc i64 %9 to i32
  store i32 %10, i32* %5, align 4
  store i32 1, i32* %3, align 4
  br label %11

11:                                               ; preds = %68, %0
  %12 = load i32, i32* %3, align 4
  %13 = load i32, i32* %5, align 4
  %14 = sub nsw i32 %13, 1
  %15 = icmp slt i32 %12, %14
  br i1 %15, label %16, label %71

16:                                               ; preds = %11
  %17 = load i32, i32* %3, align 4
  %18 = sub nsw i32 %17, 1
  %19 = sext i32 %18 to i64
  %20 = getelementptr inbounds [200 x i8], [200 x i8]* %2, i64 0, i64 %19
  %21 = load i8, i8* %20, align 1
  %22 = sext i8 %21 to i32
  %23 = icmp ne i32 %22, 32
  br i1 %23, label %24, label %67

24:                                               ; preds = %16
  %25 = load i32, i32* %3, align 4
  %26 = sext i32 %25 to i64
  %27 = getelementptr inbounds [200 x i8], [200 x i8]* %2, i64 0, i64 %26
  %28 = load i8, i8* %27, align 1
  %29 = sext i8 %28 to i32
  %30 = icmp eq i32 %29, 32
  br i1 %30, label %31, label %67

31:                                               ; preds = %24
  %32 = load i32, i32* %3, align 4
  %33 = add nsw i32 %32, 1
  %34 = sext i32 %33 to i64
  %35 = getelementptr inbounds [200 x i8], [200 x i8]* %2, i64 0, i64 %34
  %36 = load i8, i8* %35, align 1
  %37 = sext i8 %36 to i32
  %38 = icmp eq i32 %37, 32
  br i1 %38, label %39, label %67

39:                                               ; preds = %31
  %40 = load i32, i32* %3, align 4
  %41 = add nsw i32 %40, 1
  store i32 %41, i32* %4, align 4
  br label %42

42:                                               ; preds = %56, %39
  %43 = load i32, i32* %4, align 4
  %44 = load i32, i32* %5, align 4
  %45 = sub nsw i32 %44, 1
  %46 = icmp slt i32 %43, %45
  br i1 %46, label %47, label %59

47:                                               ; preds = %42
  %48 = load i32, i32* %4, align 4
  %49 = add nsw i32 %48, 1
  %50 = sext i32 %49 to i64
  %51 = getelementptr inbounds [200 x i8], [200 x i8]* %2, i64 0, i64 %50
  %52 = load i8, i8* %51, align 1
  %53 = load i32, i32* %4, align 4
  %54 = sext i32 %53 to i64
  %55 = getelementptr inbounds [200 x i8], [200 x i8]* %2, i64 0, i64 %54
  store i8 %52, i8* %55, align 1
  br label %56

56:                                               ; preds = %47
  %57 = load i32, i32* %4, align 4
  %58 = add nsw i32 %57, 1
  store i32 %58, i32* %4, align 4
  br label %42

59:                                               ; preds = %42
  %60 = load i32, i32* %5, align 4
  %61 = sub nsw i32 %60, 1
  store i32 %61, i32* %5, align 4
  %62 = load i32, i32* %5, align 4
  %63 = sext i32 %62 to i64
  %64 = getelementptr inbounds [200 x i8], [200 x i8]* %2, i64 0, i64 %63
  store i8 0, i8* %64, align 1
  %65 = load i32, i32* %3, align 4
  %66 = add nsw i32 %65, -1
  store i32 %66, i32* %3, align 4
  br label %67

67:                                               ; preds = %59, %31, %24, %16
  br label %68

68:                                               ; preds = %67
  %69 = load i32, i32* %3, align 4
  %70 = add nsw i32 %69, 1
  store i32 %70, i32* %3, align 4
  br label %11

71:                                               ; preds = %11
  %72 = getelementptr inbounds [200 x i8], [200 x i8]* %2, i64 0, i64 0
  %73 = call i32 @puts(i8* %72)
  ret i32 0
}

declare dso_local i32 @gets(...) #1

; Function Attrs: nounwind readonly
declare dso_local i64 @strlen(i8*) #2

declare dso_local i32 @puts(i8*) #1


!llvm.module.flags = !{!0}
!llvm.ident = !{!1}

!0 = !{i32 1, !"wchar_size", i32 4}
!1 = !{!"clang version 10.0.0-4ubuntu1 "}
